target datalayout = "e-m:e-p270:32:32-p271:32:32-p272:64:64-i64:64-i128:128-f80:128-n8:16:32:64-S128"
target triple = "x86_64-pc-linux-gnu"

@.str.51 = private unnamed_addr constant [5 x i8] c"DATA\00", align 1
@.str.52 = private unnamed_addr constant [11 x i8] c"SYN_STREAM\00", align 1
@.str.53 = private unnamed_addr constant [10 x i8] c"SYN_REPLY\00", align 1
@.str.54 = private unnamed_addr constant [11 x i8] c"RST_STREAM\00", align 1
@.str.55 = private unnamed_addr constant [9 x i8] c"SETTINGS\00", align 1
@.str.56 = private unnamed_addr constant [5 x i8] c"PING\00", align 1
@.str.57 = private unnamed_addr constant [7 x i8] c"GOAWAY\00", align 1
@.str.58 = private unnamed_addr constant [8 x i8] c"HEADERS\00", align 1
@.str.59 = private unnamed_addr constant [14 x i8] c"WINDOW_UPDATE\00", align 1
@.str.60 = private unnamed_addr constant [13 x i8] c"PUSH_PROMISE\00", align 1
@.str.61 = private unnamed_addr constant [13 x i8] c"CONTINUATION\00", align 1
@.str.62 = private unnamed_addr constant [9 x i8] c"PRIORITY\00", align 1
@.str.63 = private unnamed_addr constant [7 x i8] c"ALTSVC\00", align 1
@.str.64 = private unnamed_addr constant [8 x i8] c"BLOCKED\00", align 1
@.str.65 = private unnamed_addr constant [21 x i8] c"UNKNOWN_CONTROL_TYPE\00", align 1

; Function Attrs: mustprogress nounwind uwtable
define noundef ptr @_ZN3net10SpdyFramer17FrameTypeToStringENS_13SpdyFrameTypeE(i32 noundef %0) #4 align 2 {
  %2 = alloca ptr, align 8
  %3 = alloca i32, align 4
  store i32 %0, ptr %3, align 4, !tbaa !168
  %4 = load i32, ptr %3, align 4, !tbaa !168
  switch i32 %4, label %19 [
    i32 0, label %5
    i32 1, label %6
    i32 2, label %7
    i32 3, label %8
    i32 4, label %9
    i32 5, label %10
    i32 6, label %11
    i32 7, label %12
    i32 8, label %13
    i32 9, label %14
    i32 10, label %15
    i32 11, label %16
    i32 13, label %17
    i32 12, label %18
  ]

5:                                                ; preds = %1
  store ptr @.str.51, ptr %2, align 8
  br label %20

6:                                                ; preds = %1
  store ptr @.str.52, ptr %2, align 8
  br label %20

7:                                                ; preds = %1
  store ptr @.str.53, ptr %2, align 8
  br label %20

8:                                                ; preds = %1
  store ptr @.str.54, ptr %2, align 8
  br label %20

9:                                                ; preds = %1
  store ptr @.str.55, ptr %2, align 8
  br label %20

10:                                               ; preds = %1
  store ptr @.str.56, ptr %2, align 8
  br label %20

11:                                               ; preds = %1
  store ptr @.str.57, ptr %2, align 8
  br label %20

12:                                               ; preds = %1
  store ptr @.str.58, ptr %2, align 8
  br label %20

13:                                               ; preds = %1
  store ptr @.str.59, ptr %2, align 8
  br label %20

14:                                               ; preds = %1
  store ptr @.str.60, ptr %2, align 8
  br label %20

15:                                               ; preds = %1
  store ptr @.str.61, ptr %2, align 8
  br label %20

16:                                               ; preds = %1
  store ptr @.str.62, ptr %2, align 8
  br label %20

17:                                               ; preds = %1
  store ptr @.str.63, ptr %2, align 8
  br label %20

18:                                               ; preds = %1
  store ptr @.str.64, ptr %2, align 8
  br label %20

19:                                               ; preds = %1
  store ptr @.str.65, ptr %2, align 8
  br label %20

20:                                               ; preds = %19, %18, %17, %16, %15, %14, %13, %12, %11, %10, %9, %8, %7, %6, %5
  %21 = load ptr, ptr %2, align 8
  ret ptr %21
}